; Function Attrs: mustprogress nofree norecurse nosync nounwind willreturn memory(argmem: read) uwtable
define internal noundef i32 @_ZN2cv12cpu_baselineL14countNonZero8uEPKhi(ptr nocapture noundef readonly %0, i32 noundef %1) #1 {
  %3 = icmp sgt i32 %1, 0
  br i1 %3, label %.lr.ph.preheader, label %._crit_edge

.lr.ph.preheader:                                 ; preds = %2
  %wide.trip.count = zext nneg i32 %1 to i64
  br label %.lr.ph

.lr.ph:                                           ; preds = %.lr.ph.preheader, %.lr.ph
  %indvars.iv = phi i64 [ 0, %.lr.ph.preheader ], [ %indvars.iv.next, %.lr.ph ]
  %.08 = phi i32 [ 0, %.lr.ph.preheader ], [ %8, %.lr.ph ]
  %4 = getelementptr inbounds i8, ptr %0, i64 %indvars.iv
  %5 = load i8, ptr %4, align 1
  %6 = icmp ne i8 %5, 0
  %7 = zext i1 %6 to i32
  %8 = add nuw nsw i32 %.08, %7
  %indvars.iv.next = add nuw nsw i64 %indvars.iv, 1
  %exitcond.not = icmp eq i64 %indvars.iv.next, %wide.trip.count
  br i1 %exitcond.not, label %._crit_edge, label %.lr.ph, !llvm.loop !4

._crit_edge:                                      ; preds = %.lr.ph, %2
  %.0.lcssa = phi i32 [ 0, %2 ], [ %8, %.lr.ph ]
  ret i32 %.0.lcssa
}